; Function Attrs: inlinehint nounwind uwtable
define internal fastcc i64 @heap_getattr(ptr noundef nonnull %0, i32 noundef range(i32 4, 6) %1, ptr noundef %2, ptr noundef nonnull %3) unnamed_addr #6 {
  %5 = getelementptr inbounds nuw i8, ptr %0, i64 16
  %6 = load ptr, ptr %5, align 8
  %7 = getelementptr inbounds nuw i8, ptr %6, i64 18
  %8 = load i16, ptr %7, align 2
  %9 = and i16 %8, 2047
  %10 = zext nneg i16 %9 to i32
  %11 = icmp samesign ugt i32 %1, %10
  br i1 %11, label %12, label %14

12:                                               ; preds = %4
  %13 = tail call i64 @getmissingattr(ptr noundef %2, i32 noundef %1, ptr noundef nonnull %3) #8
  br label %fastgetattr.exit

14:                                               ; preds = %4
  store i8 0, ptr %3, align 1
  %.val.i = load ptr, ptr %5, align 8
  %15 = getelementptr i8, ptr %.val.i, i64 20
  %.val.val.i = load i16, ptr %15, align 4
  %16 = and i16 %.val.val.i, 1
  %.not.i.i = icmp eq i16 %16, 0
  %17 = add nsw i32 %1, -1
  br i1 %.not.i.i, label %18, label %56

18:                                               ; preds = %14
  %19 = getelementptr inbounds nuw i8, ptr %2, i64 24
  %20 = zext nneg i32 %17 to i64
  %21 = getelementptr inbounds nuw [0 x %struct.CompactAttribute], ptr %19, i64 0, i64 %20
  %22 = load i32, ptr %21, align 4
  %23 = icmp sgt i32 %22, -1
  br i1 %23, label %24, label %54

24:                                               ; preds = %18
  %25 = getelementptr inbounds nuw i8, ptr %.val.i, i64 22
  %26 = load i8, ptr %25, align 2
  %27 = zext i8 %26 to i64
  %28 = getelementptr inbounds nuw i8, ptr %.val.i, i64 %27
  %29 = zext nneg i32 %22 to i64
  %30 = getelementptr inbounds nuw i8, ptr %28, i64 %29
  %31 = getelementptr inbounds nuw i8, ptr %21, i64 6
  %32 = load i8, ptr %31, align 2, !range !4, !noundef !5
  %33 = trunc nuw i8 %32 to i1
  %34 = getelementptr inbounds nuw i8, ptr %21, i64 4
  %35 = load i16, ptr %34, align 4
  br i1 %33, label %36, label %52

36:                                               ; preds = %24
  switch i16 %35, label %48 [
    i16 1, label %37
    i16 2, label %40
    i16 4, label %43
    i16 8, label %46
  ]

37:                                               ; preds = %36
  %38 = load i8, ptr %30, align 1
  %39 = sext i8 %38 to i64
  br label %fastgetattr.exit

40:                                               ; preds = %36
  %41 = load i16, ptr %30, align 2
  %42 = sext i16 %41 to i64
  br label %fastgetattr.exit

43:                                               ; preds = %36
  %44 = load i32, ptr %30, align 4
  %45 = sext i32 %44 to i64
  br label %fastgetattr.exit

46:                                               ; preds = %36
  %47 = load i64, ptr %30, align 8
  br label %fastgetattr.exit

48:                                               ; preds = %36
  %49 = sext i16 %35 to i32
  %50 = tail call zeroext i1 @errstart_cold(i32 noundef 21, ptr noundef null) #9
  tail call void @llvm.assume(i1 %50)
  %51 = tail call i32 (ptr, ...) @errmsg_internal(ptr noundef nonnull @.str.6, i32 noundef range(i32 -32768, 32768) %49) #8
  tail call void @errfinish(ptr noundef nonnull @.str.7, i32 noundef 70, ptr noundef nonnull @__func__.fetch_att) #8
  unreachable

52:                                               ; preds = %24
  %53 = ptrtoint ptr %30 to i64
  br label %fastgetattr.exit

54:                                               ; preds = %18
  %55 = tail call i64 @nocachegetattr(ptr noundef nonnull %0, i32 noundef range(i32 4, 6) %1, ptr noundef nonnull %2) #8
  br label %fastgetattr.exit

56:                                               ; preds = %14
  %57 = getelementptr inbounds nuw i8, ptr %.val.i, i64 23
  %.val20.i = load i8, ptr %57, align 1
  %58 = zext i8 %.val20.i to i32
  %59 = shl nuw nsw i32 1, %17
  %60 = and i32 %59, %58
  %.not.i21.i = icmp eq i32 %60, 0
  br i1 %.not.i21.i, label %61, label %62

61:                                               ; preds = %56
  store i8 1, ptr %3, align 1
  br label %fastgetattr.exit

62:                                               ; preds = %56
  %63 = tail call i64 @nocachegetattr(ptr noundef nonnull %0, i32 noundef range(i32 4, 6) %1, ptr noundef %2) #8
  br label %fastgetattr.exit

fastgetattr.exit:                                 ; preds = %62, %61, %54, %52, %46, %43, %40, %37, %12
  %.0 = phi i64 [ %13, %12 ], [ 0, %61 ], [ %63, %62 ], [ %55, %54 ], [ %47, %46 ], [ %45, %43 ], [ %42, %40 ], [ %39, %37 ], [ %53, %52 ]
  ret i64 %.0
}